target datalayout = "e-m:e-p270:32:32-p271:32:32-p272:64:64-i64:64-i128:128-f80:128-n8:16:32:64-S128"
target triple = "x86_64-unknown-linux-gnu"

%"class.smt::case_split_queue" = type { ptr }
%class.ptr_vector = type { %class.vector.3 }
%class.vector.3 = type { ptr }
%"class.(anonymous namespace)::rel_case_split_queue" = type { %"class.smt::case_split_queue", ptr, ptr, ptr, %class.ptr_vector, i32, i32, %class.ptr_vector, i32, %class.svector.302 }
%class.svector.302 = type { %class.vector.303 }
%class.vector.303 = type { ptr }

; Function Attrs: mustprogress nounwind uwtable
define internal void @_ZN6vectorIN12_GLOBAL__N_120rel_case_split_queue5scopeELb0EjE5resetEv(ptr noundef nonnull align 8 dereferenceable(8) %this) #4 align 2 {
entry:
  %this.addr = alloca ptr, align 8
  store ptr %this, ptr %this.addr, align 8
  %this1 = load ptr, ptr %this.addr, align 8
  %m_data = getelementptr inbounds %class.vector.303, ptr %this1, i32 0, i32 0
  %0 = load ptr, ptr %m_data, align 8
  %tobool = icmp ne ptr %0, null
  br i1 %tobool, label %if.then, label %if.end

if.then:                                          ; preds = %entry
  %m_data2 = getelementptr inbounds %class.vector.303, ptr %this1, i32 0, i32 0
  %1 = load ptr, ptr %m_data2, align 8
  %arrayidx = getelementptr inbounds i32, ptr %1, i64 -1
  store i32 0, ptr %arrayidx, align 4
  br label %if.end

if.end:                                           ; preds = %if.then, %entry
  ret void
}

; Function Attrs: mustprogress nounwind uwtable
define linkonce_odr hidden void @_ZN6vectorIP4exprLb0EjE5resetEv(ptr noundef nonnull align 8 dereferenceable(8) %this) #4 comdat align 2 {
entry:
  %this.addr = alloca ptr, align 8
  store ptr %this, ptr %this.addr, align 8
  %this1 = load ptr, ptr %this.addr, align 8
  %m_data = getelementptr inbounds %class.vector.3, ptr %this1, i32 0, i32 0
  %0 = load ptr, ptr %m_data, align 8
  %tobool = icmp ne ptr %0, null
  br i1 %tobool, label %if.then, label %if.end

if.then:                                          ; preds = %entry
  %m_data2 = getelementptr inbounds %class.vector.3, ptr %this1, i32 0, i32 0
  %1 = load ptr, ptr %m_data2, align 8
  %arrayidx = getelementptr inbounds i32, ptr %1, i64 -1
  store i32 0, ptr %arrayidx, align 4
  br label %if.end

if.end:                                           ; preds = %if.then, %entry
  ret void
}

; Function Attrs: mustprogress uwtable
define internal void @_ZN12_GLOBAL__N_120rel_case_split_queue5resetEv(ptr noundef nonnull align 8 dereferenceable(72) %this) unnamed_addr #5 align 2 {
entry:
  %this.addr = alloca ptr, align 8
  store ptr %this, ptr %this.addr, align 8
  %this1 = load ptr, ptr %this.addr, align 8
  %m_queue = getelementptr inbounds %"class.(anonymous namespace)::rel_case_split_queue", ptr %this1, i32 0, i32 4
  call void @_ZN6vectorIP4exprLb0EjE5resetEv(ptr noundef nonnull align 8 dereferenceable(8) %m_queue)
  %m_head = getelementptr inbounds %"class.(anonymous namespace)::rel_case_split_queue", ptr %this1, i32 0, i32 5
  store i32 0, ptr %m_head, align 8
  %m_queue2 = getelementptr inbounds %"class.(anonymous namespace)::rel_case_split_queue", ptr %this1, i32 0, i32 7
  call void @_ZN6vectorIP4exprLb0EjE5resetEv(ptr noundef nonnull align 8 dereferenceable(8) %m_queue2)
  %m_head2 = getelementptr inbounds %"class.(anonymous namespace)::rel_case_split_queue", ptr %this1, i32 0, i32 8
  store i32 0, ptr %m_head2, align 8
  %m_scopes = getelementptr inbounds %"class.(anonymous namespace)::rel_case_split_queue", ptr %this1, i32 0, i32 9
  call void @_ZN6vectorIN12_GLOBAL__N_120rel_case_split_queue5scopeELb0EjE5resetEv(ptr noundef nonnull align 8 dereferenceable(8) %m_scopes)
  ret void
}