; Function Attrs: mustprogress nofree norecurse nosync nounwind willreturn memory(write, argmem: readwrite, inaccessiblemem: none) uwtable
define internal void @_ZN12_GLOBAL__N_120rel_case_split_queue5resetEv(ptr nocapture noundef nonnull align 8 dereferenceable(72) %this) unnamed_addr #16 align 2 {
entry:
  %m_queue = getelementptr inbounds i8, ptr %this, i64 32
  %0 = load ptr, ptr %m_queue, align 8
  %tobool.not.i = icmp eq ptr %0, null
  br i1 %tobool.not.i, label %_ZN6vectorIP4exprLb0EjE5resetEv.exit, label %if.then.i

if.then.i:                                        ; preds = %entry
  %arrayidx.i = getelementptr inbounds i8, ptr %0, i64 -4
  store i32 0, ptr %arrayidx.i, align 4
  br label %_ZN6vectorIP4exprLb0EjE5resetEv.exit

_ZN6vectorIP4exprLb0EjE5resetEv.exit:             ; preds = %entry, %if.then.i
  %m_head = getelementptr inbounds i8, ptr %this, i64 40
  store i32 0, ptr %m_head, align 8
  %m_queue2 = getelementptr inbounds i8, ptr %this, i64 48
  %1 = load ptr, ptr %m_queue2, align 8
  %tobool.not.i1 = icmp eq ptr %1, null
  br i1 %tobool.not.i1, label %_ZN6vectorIP4exprLb0EjE5resetEv.exit4, label %if.then.i2

if.then.i2:                                       ; preds = %_ZN6vectorIP4exprLb0EjE5resetEv.exit
  %arrayidx.i3 = getelementptr inbounds i8, ptr %1, i64 -4
  store i32 0, ptr %arrayidx.i3, align 4
  br label %_ZN6vectorIP4exprLb0EjE5resetEv.exit4

_ZN6vectorIP4exprLb0EjE5resetEv.exit4:            ; preds = %_ZN6vectorIP4exprLb0EjE5resetEv.exit, %if.then.i2
  %m_head2 = getelementptr inbounds i8, ptr %this, i64 56
  store i32 0, ptr %m_head2, align 8
  %m_scopes = getelementptr inbounds i8, ptr %this, i64 64
  %m_scopes.val = load ptr, ptr %m_scopes, align 8
  %tobool.not.i5 = icmp eq ptr %m_scopes.val, null
  br i1 %tobool.not.i5, label %_ZN6vectorIN12_GLOBAL__N_120rel_case_split_queue5scopeELb0EjE5resetEv.exit, label %if.then.i6

if.then.i6:                                       ; preds = %_ZN6vectorIP4exprLb0EjE5resetEv.exit4
  %arrayidx.i7 = getelementptr inbounds i8, ptr %m_scopes.val, i64 -4
  store i32 0, ptr %arrayidx.i7, align 4
  br label %_ZN6vectorIN12_GLOBAL__N_120rel_case_split_queue5scopeELb0EjE5resetEv.exit

_ZN6vectorIN12_GLOBAL__N_120rel_case_split_queue5scopeELb0EjE5resetEv.exit: ; preds = %_ZN6vectorIP4exprLb0EjE5resetEv.exit4, %if.then.i6
  ret void
}